target datalayout = "e-m:e-p270:32:32-p271:32:32-p272:64:64-i64:64-i128:128-f80:128-n8:16:32:64-S128"
target triple = "x86_64-pc-linux-gnu"

%struct.pmix_object_t = type { %union.pthread_mutex_t, ptr, i32, %struct.pmix_tma }
%union.pthread_mutex_t = type { %struct.__pthread_mutex_s }
%struct.__pthread_mutex_s = type { i32, i32, i32, i32, i32, i16, i16, %struct.__pthread_internal_list }
%struct.__pthread_internal_list = type { ptr, ptr }
%struct.pmix_tma = type { ptr, ptr, ptr, ptr, ptr, ptr, ptr, ptr }
%struct.pmix_proc = type { [256 x i8], i32 }
%struct.timeval = type { i64, i64 }
%struct.pmix_class_t = type { ptr, ptr, ptr, ptr, i32, i32, ptr, ptr, i64 }
%struct.pmix_prm_module_t = type { ptr, ptr, ptr, ptr, ptr, ptr }
%struct.event = type { %struct.event_callback, %union.anon.0, i32, ptr, %union.anon.2, i16, i16, %struct.timeval }
%struct.event_callback = type { %struct.anon, i16, i8, i8, %union.anon, ptr }
%struct.anon = type { ptr, ptr }
%union.anon = type { ptr }
%union.anon.0 = type { %struct.anon.1 }
%struct.anon.1 = type { ptr, ptr }
%union.anon.2 = type { %struct.anon.3 }
%struct.anon.3 = type { %struct.anon.4, %struct.timeval }
%struct.anon.4 = type { ptr, ptr }
%struct.pmix_lock_t = type { i32, %struct.pmix_mutex_t, %union.pthread_cond_t, i8 }
%struct.pmix_mutex_t = type { %struct.pmix_object_t, %union.pthread_mutex_t }
%union.pthread_cond_t = type { %struct.__pthread_cond_s }
%struct.__pthread_cond_s = type { %union.__atomic_wide_counter, %union.__atomic_wide_counter, [2 x i32], [2 x i32], i32, i32, [2 x i32] }
%union.__atomic_wide_counter = type { i64 }
%struct.pmix_notify_caddy_t = type { %struct.pmix_object_t, %struct.event, %struct.pmix_lock_t, i64, i32, i32, %struct.pmix_proc, i8, i8, ptr, i64, i64, ptr, i64, i8, ptr, i64, ptr, ptr, ptr }

@.str.86 = private unnamed_addr constant [21 x i8] c"pthread_mutex_lock()\00", align 1
@pmix_prm = external global %struct.pmix_prm_module_t, align 8

; Function Attrs: inlinehint nounwind uwtable
define internal void @pmix_tma_free(ptr noundef %0, ptr noundef %1) #4 {
  %3 = alloca ptr, align 8
  %4 = alloca ptr, align 8
  store ptr %0, ptr %3, align 8, !tbaa !132
  store ptr %1, ptr %4, align 8, !tbaa !8
  %5 = load ptr, ptr %3, align 8, !tbaa !132
  %6 = icmp ne ptr null, %5
  br i1 %6, label %7, label %13

7:                                                ; preds = %2
  %8 = load ptr, ptr %3, align 8, !tbaa !132
  %9 = getelementptr inbounds nuw %struct.pmix_tma, ptr %8, i32 0, i32 5
  %10 = load ptr, ptr %9, align 8, !tbaa !148
  %11 = load ptr, ptr %3, align 8, !tbaa !132
  %12 = load ptr, ptr %4, align 8, !tbaa !8
  call void %10(ptr noundef %11, ptr noundef %12)
  br label %15

13:                                               ; preds = %2
  %14 = load ptr, ptr %4, align 8, !tbaa !8
  call void @free(ptr noundef %14) #14
  br label %15

15:                                               ; preds = %13, %7
  ret void
}

; Function Attrs: inlinehint nounwind uwtable
define internal void @pmix_obj_run_destructors(ptr noundef %0) #4 {
  %2 = alloca ptr, align 8
  %3 = alloca ptr, align 8
  store ptr %0, ptr %2, align 8, !tbaa !89
  call void @llvm.lifetime.start.p0(i64 8, ptr %3) #14
  %4 = load ptr, ptr %2, align 8, !tbaa !89
  %5 = getelementptr inbounds nuw %struct.pmix_object_t, ptr %4, i32 0, i32 1
  %6 = load ptr, ptr %5, align 8, !tbaa !82
  %7 = getelementptr inbounds nuw %struct.pmix_class_t, ptr %6, i32 0, i32 7
  %8 = load ptr, ptr %7, align 8, !tbaa !146
  store ptr %8, ptr %3, align 8, !tbaa !8
  br label %9

9:                                                ; preds = %13, %1
  %10 = load ptr, ptr %3, align 8, !tbaa !8
  %11 = load ptr, ptr %10, align 8, !tbaa !8
  %12 = icmp ne ptr null, %11
  br i1 %12, label %13, label %19

13:                                               ; preds = %9
  %14 = load ptr, ptr %3, align 8, !tbaa !8
  %15 = load ptr, ptr %14, align 8, !tbaa !8
  %16 = load ptr, ptr %2, align 8, !tbaa !89
  call void %15(ptr noundef %16)
  %17 = load ptr, ptr %3, align 8, !tbaa !8
  %18 = getelementptr inbounds nuw ptr, ptr %17, i32 1
  store ptr %18, ptr %3, align 8, !tbaa !8
  br label %9, !llvm.loop !147

19:                                               ; preds = %9
  call void @llvm.lifetime.end.p0(i64 8, ptr %3) #14
  ret void
}

; Function Attrs: alwaysinline nounwind uwtable
define internal i32 @pmix_obj_update(ptr noundef %0, i32 noundef %1) #6 {
  %3 = alloca ptr, align 8
  %4 = alloca i32, align 4
  %5 = alloca i32, align 4
  store ptr %0, ptr %3, align 8, !tbaa !89
  store i32 %1, ptr %4, align 4, !tbaa !28
  call void @llvm.lifetime.start.p0(i64 4, ptr %5) #14
  %6 = load ptr, ptr %3, align 8, !tbaa !89
  %7 = getelementptr inbounds nuw %struct.pmix_object_t, ptr %6, i32 0, i32 0
  %8 = call i32 @pthread_mutex_lock(ptr noundef %7) #14
  store i32 %8, ptr %5, align 4, !tbaa !28
  %9 = load i32, ptr %5, align 4, !tbaa !28
  %10 = icmp eq i32 %9, 35
  br i1 %10, label %11, label %14

11:                                               ; preds = %2
  %12 = load i32, ptr %5, align 4, !tbaa !28
  %13 = call ptr @__errno_location() #16
  store i32 %12, ptr %13, align 4, !tbaa !28
  call void @perror(ptr noundef @.str.86)
  call void @abort() #17
  unreachable

14:                                               ; preds = %2
  %15 = load i32, ptr %4, align 4, !tbaa !28
  %16 = load ptr, ptr %3, align 8, !tbaa !89
  %17 = getelementptr inbounds nuw %struct.pmix_object_t, ptr %16, i32 0, i32 2
  %18 = load i32, ptr %17, align 8, !tbaa !83
  %19 = add nsw i32 %18, %15
  store i32 %19, ptr %17, align 8, !tbaa !83
  store i32 %19, ptr %5, align 4, !tbaa !28
  %20 = load ptr, ptr %3, align 8, !tbaa !89
  %21 = getelementptr inbounds nuw %struct.pmix_object_t, ptr %20, i32 0, i32 0
  %22 = call i32 @pthread_mutex_unlock(ptr noundef %21) #14
  %23 = load i32, ptr %5, align 4, !tbaa !28
  call void @llvm.lifetime.end.p0(i64 4, ptr %5) #14
  ret i32 %23
}

; Function Attrs: nounwind uwtable
define internal void @intermed_step(i32 noundef %0, ptr noundef %1) #0 {
  %3 = alloca i32, align 4
  %4 = alloca ptr, align 8
  %5 = alloca ptr, align 8
  %6 = alloca i32, align 4
  %7 = alloca i32, align 4
  %8 = alloca ptr, align 8
  store i32 %0, ptr %3, align 4, !tbaa !28
  store ptr %1, ptr %4, align 8, !tbaa !8
  call void @llvm.lifetime.start.p0(i64 8, ptr %5) #14
  %9 = load ptr, ptr %4, align 8, !tbaa !8
  store ptr %9, ptr %5, align 8, !tbaa !8
  call void @llvm.lifetime.start.p0(i64 4, ptr %6) #14
  %10 = load i32, ptr %3, align 4, !tbaa !28
  %11 = icmp ne i32 0, %10
  br i1 %11, label %12, label %14

12:                                               ; preds = %2
  %13 = load i32, ptr %3, align 4, !tbaa !28
  store i32 %13, ptr %6, align 4, !tbaa !28
  br label %50

14:                                               ; preds = %2
  %15 = load ptr, ptr %5, align 8, !tbaa !8
  %16 = getelementptr inbounds nuw %struct.pmix_notify_caddy_t, ptr %15, i32 0, i32 7
  %17 = load i8, ptr %16, align 4, !tbaa !313
  %18 = zext i8 %17 to i32
  %19 = icmp eq i32 2, %18
  br i1 %19, label %20, label %21

20:                                               ; preds = %14
  store i32 0, ptr %6, align 4, !tbaa !28
  br label %50

21:                                               ; preds = %14
  %22 = load ptr, ptr getelementptr inbounds nuw (%struct.pmix_prm_module_t, ptr @pmix_prm, i32 0, i32 4), align 8, !tbaa !340
  %23 = load ptr, ptr %5, align 8, !tbaa !8
  %24 = getelementptr inbounds nuw %struct.pmix_notify_caddy_t, ptr %23, i32 0, i32 5
  %25 = load i32, ptr %24, align 4, !tbaa !307
  %26 = load ptr, ptr %5, align 8, !tbaa !8
  %27 = getelementptr inbounds nuw %struct.pmix_notify_caddy_t, ptr %26, i32 0, i32 6
  %28 = load ptr, ptr %5, align 8, !tbaa !8
  %29 = getelementptr inbounds nuw %struct.pmix_notify_caddy_t, ptr %28, i32 0, i32 7
  %30 = load i8, ptr %29, align 4, !tbaa !313
  %31 = load ptr, ptr %5, align 8, !tbaa !8
  %32 = getelementptr inbounds nuw %struct.pmix_notify_caddy_t, ptr %31, i32 0, i32 15
  %33 = load ptr, ptr %32, align 8, !tbaa !320
  %34 = load ptr, ptr %5, align 8, !tbaa !8
  %35 = getelementptr inbounds nuw %struct.pmix_notify_caddy_t, ptr %34, i32 0, i32 16
  %36 = load i64, ptr %35, align 8, !tbaa !319
  %37 = load ptr, ptr %5, align 8, !tbaa !8
  %38 = call i32 %22(i32 noundef %25, ptr noundef %27, i8 noundef zeroext %30, ptr noundef %33, i64 noundef %36, ptr noundef @local_cbfunc, ptr noundef %37)
  store i32 %38, ptr %6, align 4, !tbaa !28
  %39 = load i32, ptr %6, align 4, !tbaa !28
  %40 = icmp eq i32 0, %39
  br i1 %40, label %41, label %42

41:                                               ; preds = %21
  store i32 1, ptr %7, align 4
  br label %86

42:                                               ; preds = %21
  %43 = load i32, ptr %6, align 4, !tbaa !28
  %44 = icmp eq i32 -157, %43
  br i1 %44, label %48, label %45

45:                                               ; preds = %42
  %46 = load i32, ptr %6, align 4, !tbaa !28
  %47 = icmp eq i32 -47, %46
  br i1 %47, label %48, label %49

48:                                               ; preds = %45, %42
  store i32 0, ptr %6, align 4, !tbaa !28
  br label %49

49:                                               ; preds = %48, %45
  br label %50

50:                                               ; preds = %49, %20, %12
  %51 = load ptr, ptr %5, align 8, !tbaa !8
  %52 = getelementptr inbounds nuw %struct.pmix_notify_caddy_t, ptr %51, i32 0, i32 18
  %53 = load ptr, ptr %52, align 8, !tbaa !337
  %54 = icmp ne ptr null, %53
  br i1 %54, label %55, label %63

55:                                               ; preds = %50
  %56 = load ptr, ptr %5, align 8, !tbaa !8
  %57 = getelementptr inbounds nuw %struct.pmix_notify_caddy_t, ptr %56, i32 0, i32 18
  %58 = load ptr, ptr %57, align 8, !tbaa !337
  %59 = load i32, ptr %6, align 4, !tbaa !28
  %60 = load ptr, ptr %5, align 8, !tbaa !8
  %61 = getelementptr inbounds nuw %struct.pmix_notify_caddy_t, ptr %60, i32 0, i32 19
  %62 = load ptr, ptr %61, align 8, !tbaa !338
  call void %58(i32 noundef %59, ptr noundef %62)
  br label %63

63:                                               ; preds = %55, %50
  br label %64

64:                                               ; preds = %63
  call void @llvm.lifetime.start.p0(i64 8, ptr %8) #14
  %65 = load ptr, ptr %5, align 8, !tbaa !8
  store ptr %65, ptr %8, align 8, !tbaa !89
  %66 = load ptr, ptr %8, align 8, !tbaa !89
  %67 = call i32 @pmix_obj_update(ptr noundef %66, i32 noundef -1)
  %68 = icmp eq i32 0, %67
  br i1 %68, label %69, label %83

69:                                               ; preds = %64
  %70 = load ptr, ptr %8, align 8, !tbaa !89
  call void @pmix_obj_run_destructors(ptr noundef %70)
  %71 = load ptr, ptr %8, align 8, !tbaa !89
  %72 = getelementptr inbounds nuw %struct.pmix_object_t, ptr %71, i32 0, i32 3
  %73 = getelementptr inbounds nuw %struct.pmix_tma, ptr %72, i32 0, i32 5
  %74 = load ptr, ptr %73, align 8, !tbaa !91
  %75 = icmp ne ptr null, %74
  br i1 %75, label %76, label %80

76:                                               ; preds = %69
  %77 = load ptr, ptr %8, align 8, !tbaa !89
  %78 = getelementptr inbounds nuw %struct.pmix_object_t, ptr %77, i32 0, i32 3
  %79 = load ptr, ptr %5, align 8, !tbaa !8
  call void @pmix_tma_free(ptr noundef %78, ptr noundef %79)
  br label %82

80:                                               ; preds = %69
  %81 = load ptr, ptr %5, align 8, !tbaa !8
  call void @free(ptr noundef %81) #14
  br label %82

82:                                               ; preds = %80, %76
  store ptr null, ptr %5, align 8, !tbaa !8
  br label %83

83:                                               ; preds = %82, %64
  call void @llvm.lifetime.end.p0(i64 8, ptr %8) #14
  br label %84

84:                                               ; preds = %83
  br label %85

85:                                               ; preds = %84
  store i32 0, ptr %7, align 4
  br label %86

86:                                               ; preds = %85, %41
  call void @llvm.lifetime.end.p0(i64 4, ptr %6) #14
  call void @llvm.lifetime.end.p0(i64 8, ptr %5) #14
  %87 = load i32, ptr %7, align 4
  switch i32 %87, label %89 [
    i32 0, label %88
    i32 1, label %88
  ]

88:                                               ; preds = %86, %86
  ret void

89:                                               ; preds = %86
  unreachable
}