; Function Attrs: nounwind uwtable
define internal void @intermed_step(i32 noundef %0, ptr noundef %1) #0 {
  %.not = icmp eq i32 %0, 0
  br i1 %.not, label %3, label %21

3:                                                ; preds = %2
  %4 = getelementptr inbounds nuw i8, ptr %1, i64 748
  %5 = load i8, ptr %4, align 4, !tbaa !266
  %6 = icmp eq i8 %5, 2
  br i1 %6, label %21, label %7

7:                                                ; preds = %3
  %8 = load ptr, ptr getelementptr inbounds nuw (i8, ptr @pmix_prm, i64 32), align 8, !tbaa !297
  %9 = getelementptr inbounds nuw i8, ptr %1, i64 484
  %10 = load i32, ptr %9, align 4, !tbaa !255
  %11 = getelementptr inbounds nuw i8, ptr %1, i64 488
  %12 = getelementptr inbounds nuw i8, ptr %1, i64 800
  %13 = load ptr, ptr %12, align 8, !tbaa !276
  %14 = getelementptr inbounds nuw i8, ptr %1, i64 808
  %15 = load i64, ptr %14, align 8, !tbaa !275
  %16 = tail call i32 %8(i32 noundef %10, ptr noundef nonnull %11, i8 noundef zeroext %5, ptr noundef %13, i64 noundef %15, ptr noundef nonnull @local_cbfunc, ptr noundef nonnull %1) #19
  %17 = icmp eq i32 %16, 0
  br i1 %17, label %51, label %18

18:                                               ; preds = %7
  %19 = icmp eq i32 %16, -157
  %20 = icmp eq i32 %16, -47
  %or.cond = or i1 %19, %20
  %spec.store.select = select i1 %or.cond, i32 0, i32 %16
  br label %21

21:                                               ; preds = %3, %2, %18
  %.0 = phi i32 [ %spec.store.select, %18 ], [ %0, %2 ], [ 0, %3 ]
  %22 = getelementptr inbounds nuw i8, ptr %1, i64 824
  %23 = load ptr, ptr %22, align 8, !tbaa !294
  %.not27 = icmp eq ptr %23, null
  br i1 %.not27, label %27, label %24

24:                                               ; preds = %21
  %25 = getelementptr inbounds nuw i8, ptr %1, i64 832
  %26 = load ptr, ptr %25, align 8, !tbaa !295
  tail call void %23(i32 noundef %.0, ptr noundef %26) #19
  br label %27

27:                                               ; preds = %21, %24
  %28 = tail call i32 @pthread_mutex_lock(ptr noundef nonnull %1) #19
  %29 = icmp eq i32 %28, 35
  br i1 %29, label %30, label %pmix_obj_update.exit

30:                                               ; preds = %27
  %31 = tail call ptr @__errno_location() #22
  store i32 35, ptr %31, align 4, !tbaa !23
  tail call void @perror(ptr noundef nonnull @.str.86) #23
  tail call void @abort() #24
  unreachable

pmix_obj_update.exit:                             ; preds = %27
  %32 = getelementptr inbounds nuw i8, ptr %1, i64 48
  %33 = load i32, ptr %32, align 8, !tbaa !78
  %34 = add nsw i32 %33, -1
  store i32 %34, ptr %32, align 8, !tbaa !78
  %35 = tail call i32 @pthread_mutex_unlock(ptr noundef nonnull %1) #19
  %36 = icmp eq i32 %34, 0
  br i1 %36, label %37, label %51

37:                                               ; preds = %pmix_obj_update.exit
  %38 = getelementptr inbounds nuw i8, ptr %1, i64 40
  %39 = load ptr, ptr %38, align 8, !tbaa !77
  %40 = getelementptr inbounds nuw i8, ptr %39, i64 48
  %41 = load ptr, ptr %40, align 8, !tbaa !88
  %42 = load ptr, ptr %41, align 8, !tbaa !80
  %.not6.i = icmp eq ptr %42, null
  br i1 %.not6.i, label %pmix_obj_run_destructors.exit, label %.lr.ph.i

.lr.ph.i:                                         ; preds = %37, %.lr.ph.i
  %43 = phi ptr [ %45, %.lr.ph.i ], [ %42, %37 ]
  %.07.i = phi ptr [ %44, %.lr.ph.i ], [ %41, %37 ]
  tail call void %43(ptr noundef nonnull %1) #19
  %44 = getelementptr inbounds nuw i8, ptr %.07.i, i64 8
  %45 = load ptr, ptr %44, align 8, !tbaa !80
  %.not.i = icmp eq ptr %45, null
  br i1 %.not.i, label %pmix_obj_run_destructors.exit, label %.lr.ph.i, !llvm.loop !89

pmix_obj_run_destructors.exit:                    ; preds = %.lr.ph.i, %37
  %46 = getelementptr inbounds nuw i8, ptr %1, i64 96
  %47 = load ptr, ptr %46, align 8, !tbaa !90
  %.not28 = icmp eq ptr %47, null
  br i1 %.not28, label %50, label %48

48:                                               ; preds = %pmix_obj_run_destructors.exit
  %49 = getelementptr inbounds nuw i8, ptr %1, i64 56
  tail call void %47(ptr noundef nonnull %49, ptr noundef nonnull %1) #19
  br label %51

50:                                               ; preds = %pmix_obj_run_destructors.exit
  tail call void @free(ptr noundef nonnull %1) #19
  br label %51

51:                                               ; preds = %pmix_obj_update.exit, %50, %48, %7
  ret void
}